target datalayout = "e-m:e-p270:32:32-p271:32:32-p272:64:64-i64:64-i128:128-f80:128-n8:16:32:64-S128"
target triple = "x86_64-pc-linux-gnu"

@.str.31 = private unnamed_addr constant [10 x i8] c"(unknown)\00", align 1
@asn1_print_info.fmt = internal constant [6 x i8] c"%-18s\00", align 1
@.str.49 = private unnamed_addr constant [7 x i8] c"cons: \00", align 1
@.str.50 = private unnamed_addr constant [7 x i8] c"prim: \00", align 1
@.str.51 = private unnamed_addr constant [13 x i8] c"priv [ %d ] \00", align 1
@.str.52 = private unnamed_addr constant [12 x i8] c"cont [ %d ]\00", align 1
@.str.53 = private unnamed_addr constant [12 x i8] c"appl [ %d ]\00", align 1
@.str.54 = private unnamed_addr constant [10 x i8] c"<ASN1 %d>\00", align 1

; Function Attrs: nounwind uwtable
define hidden ptr @ASN1_tag2str(i32 noundef %0) #0 {
  %2 = alloca ptr, align 8
  %3 = alloca i32, align 4
  store i32 %0, ptr %3, align 4, !tbaa !15
  %4 = load i32, ptr %3, align 4, !tbaa !15
  %5 = icmp eq i32 %4, 258
  br i1 %5, label %9, label %6

6:                                                ; preds = %1
  %7 = load i32, ptr %3, align 4, !tbaa !15
  %8 = icmp eq i32 %7, 266
  br i1 %8, label %9, label %12

9:                                                ; preds = %6, %1
  %10 = load i32, ptr %3, align 4, !tbaa !15
  %11 = and i32 %10, -257
  store i32 %11, ptr %3, align 4, !tbaa !15
  br label %12

12:                                               ; preds = %9, %6
  %13 = load i32, ptr %3, align 4, !tbaa !15
  %14 = icmp slt i32 %13, 0
  br i1 %14, label %18, label %15

15:                                               ; preds = %12
  %16 = load i32, ptr %3, align 4, !tbaa !15
  %17 = icmp sgt i32 %16, 30
  br i1 %17, label %18, label %19

18:                                               ; preds = %15, %12
  store ptr @.str.31, ptr %2, align 8
  br label %24

19:                                               ; preds = %15
  %20 = load i32, ptr %3, align 4, !tbaa !15
  %21 = sext i32 %20 to i64
  %22 = getelementptr inbounds [31 x ptr], ptr @ASN1_tag2str.tag2str, i64 0, i64 %21
  %23 = load ptr, ptr %22, align 8, !tbaa !11
  store ptr %23, ptr %2, align 8
  br label %24

24:                                               ; preds = %19, %18
  %25 = load ptr, ptr %2, align 8
  ret ptr %25
}

; Function Attrs: nounwind uwtable
define internal i32 @asn1_print_info(ptr noundef %0, i32 noundef %1, i32 noundef %2, i32 noundef %3, i32 noundef %4) #0 {
  %6 = alloca i32, align 4
  %7 = alloca ptr, align 8
  %8 = alloca i32, align 4
  %9 = alloca i32, align 4
  %10 = alloca i32, align 4
  %11 = alloca i32, align 4
  %12 = alloca [128 x i8], align 16
  %13 = alloca ptr, align 8
  %14 = alloca i32, align 4
  store ptr %0, ptr %7, align 8, !tbaa !6
  store i32 %1, ptr %8, align 4, !tbaa !15
  store i32 %2, ptr %9, align 4, !tbaa !15
  store i32 %3, ptr %10, align 4, !tbaa !15
  store i32 %4, ptr %11, align 4, !tbaa !15
  call void @llvm.lifetime.start.p0(i64 128, ptr %12) #3
  call void @llvm.lifetime.start.p0(i64 8, ptr %13) #3
  %15 = load i32, ptr %10, align 4, !tbaa !15
  %16 = and i32 %15, 32
  %17 = icmp ne i32 %16, 0
  br i1 %17, label %18, label %19

18:                                               ; preds = %5
  store ptr @.str.49, ptr %13, align 8, !tbaa !11
  br label %20

19:                                               ; preds = %5
  store ptr @.str.50, ptr %13, align 8, !tbaa !11
  br label %20

20:                                               ; preds = %19, %18
  %21 = load ptr, ptr %7, align 8, !tbaa !6
  %22 = load ptr, ptr %13, align 8, !tbaa !11
  %23 = call i32 @BIO_write(ptr noundef %21, ptr noundef %22, i32 noundef 6)
  %24 = icmp slt i32 %23, 6
  br i1 %24, label %25, label %26

25:                                               ; preds = %20
  br label %74

26:                                               ; preds = %20
  %27 = load ptr, ptr %7, align 8, !tbaa !6
  %28 = load i32, ptr %11, align 4, !tbaa !15
  %29 = call i32 @BIO_indent(ptr noundef %27, i32 noundef %28, i32 noundef 128)
  %30 = getelementptr inbounds [128 x i8], ptr %12, i64 0, i64 0
  store ptr %30, ptr %13, align 8, !tbaa !11
  %31 = load i32, ptr %9, align 4, !tbaa !15
  %32 = and i32 %31, 192
  %33 = icmp eq i32 %32, 192
  br i1 %33, label %34, label %38

34:                                               ; preds = %26
  %35 = getelementptr inbounds [128 x i8], ptr %12, i64 0, i64 0
  %36 = load i32, ptr %8, align 4, !tbaa !15
  %37 = call i32 (ptr, i64, ptr, ...) @BIO_snprintf(ptr noundef %35, i64 noundef 128, ptr noundef @.str.51, i32 noundef %36)
  br label %67

38:                                               ; preds = %26
  %39 = load i32, ptr %9, align 4, !tbaa !15
  %40 = and i32 %39, 128
  %41 = icmp eq i32 %40, 128
  br i1 %41, label %42, label %46

42:                                               ; preds = %38
  %43 = getelementptr inbounds [128 x i8], ptr %12, i64 0, i64 0
  %44 = load i32, ptr %8, align 4, !tbaa !15
  %45 = call i32 (ptr, i64, ptr, ...) @BIO_snprintf(ptr noundef %43, i64 noundef 128, ptr noundef @.str.52, i32 noundef %44)
  br label %66

46:                                               ; preds = %38
  %47 = load i32, ptr %9, align 4, !tbaa !15
  %48 = and i32 %47, 64
  %49 = icmp eq i32 %48, 64
  br i1 %49, label %50, label %54

50:                                               ; preds = %46
  %51 = getelementptr inbounds [128 x i8], ptr %12, i64 0, i64 0
  %52 = load i32, ptr %8, align 4, !tbaa !15
  %53 = call i32 (ptr, i64, ptr, ...) @BIO_snprintf(ptr noundef %51, i64 noundef 128, ptr noundef @.str.53, i32 noundef %52)
  br label %65

54:                                               ; preds = %46
  %55 = load i32, ptr %8, align 4, !tbaa !15
  %56 = icmp sgt i32 %55, 30
  br i1 %56, label %57, label %61

57:                                               ; preds = %54
  %58 = getelementptr inbounds [128 x i8], ptr %12, i64 0, i64 0
  %59 = load i32, ptr %8, align 4, !tbaa !15
  %60 = call i32 (ptr, i64, ptr, ...) @BIO_snprintf(ptr noundef %58, i64 noundef 128, ptr noundef @.str.54, i32 noundef %59)
  br label %64

61:                                               ; preds = %54
  %62 = load i32, ptr %8, align 4, !tbaa !15
  %63 = call ptr @ASN1_tag2str(i32 noundef %62)
  store ptr %63, ptr %13, align 8, !tbaa !11
  br label %64

64:                                               ; preds = %61, %57
  br label %65

65:                                               ; preds = %64, %50
  br label %66

66:                                               ; preds = %65, %42
  br label %67

67:                                               ; preds = %66, %34
  %68 = load ptr, ptr %7, align 8, !tbaa !6
  %69 = load ptr, ptr %13, align 8, !tbaa !11
  %70 = call i32 (ptr, ptr, ...) @BIO_printf(ptr noundef %68, ptr noundef @asn1_print_info.fmt, ptr noundef %69)
  %71 = icmp sle i32 %70, 0
  br i1 %71, label %72, label %73

72:                                               ; preds = %67
  br label %74

73:                                               ; preds = %67
  store i32 1, ptr %6, align 4
  store i32 1, ptr %14, align 4
  br label %75

74:                                               ; preds = %72, %25
  store i32 0, ptr %6, align 4
  store i32 1, ptr %14, align 4
  br label %75

75:                                               ; preds = %74, %73
  call void @llvm.lifetime.end.p0(i64 8, ptr %13) #3
  call void @llvm.lifetime.end.p0(i64 128, ptr %12) #3
  %76 = load i32, ptr %6, align 4
  ret i32 %76
}