; Function Attrs: nounwind uwtable
define internal fastcc range(i32 0, 2) i32 @asn1_print_info(ptr noundef %0, i32 noundef %1, i32 noundef %2, i32 noundef %3, i32 noundef %4) unnamed_addr #0 {
  %6 = alloca [128 x i8], align 16
  call void @llvm.lifetime.start.p0(i64 128, ptr nonnull %6) #5
  %7 = and i32 %3, 32
  %.not = icmp eq i32 %7, 0
  %.str.50..str.49 = select i1 %.not, ptr @.str.50, ptr @.str.49
  %8 = tail call i32 @BIO_write(ptr noundef %0, ptr noundef nonnull %.str.50..str.49, i32 noundef 6) #5
  %9 = icmp slt i32 %8, 6
  br i1 %9, label %37, label %10

10:                                               ; preds = %5
  %11 = tail call i32 @BIO_indent(ptr noundef %0, i32 noundef %4, i32 noundef 128) #5
  %12 = and i32 %2, 192
  %13 = icmp eq i32 %12, 192
  br i1 %13, label %14, label %16

14:                                               ; preds = %10
  %15 = call i32 (ptr, i64, ptr, ...) @BIO_snprintf(ptr noundef nonnull %6, i64 noundef 128, ptr noundef nonnull @.str.51, i32 noundef %1) #5
  br label %ASN1_tag2str.exit

16:                                               ; preds = %10
  %17 = and i32 %2, 128
  %.not19 = icmp eq i32 %17, 0
  br i1 %.not19, label %20, label %18

18:                                               ; preds = %16
  %19 = call i32 (ptr, i64, ptr, ...) @BIO_snprintf(ptr noundef nonnull %6, i64 noundef 128, ptr noundef nonnull @.str.52, i32 noundef %1) #5
  br label %ASN1_tag2str.exit

20:                                               ; preds = %16
  %21 = and i32 %2, 64
  %.not20 = icmp eq i32 %21, 0
  br i1 %.not20, label %24, label %22

22:                                               ; preds = %20
  %23 = call i32 (ptr, i64, ptr, ...) @BIO_snprintf(ptr noundef nonnull %6, i64 noundef 128, ptr noundef nonnull @.str.53, i32 noundef %1) #5
  br label %ASN1_tag2str.exit

24:                                               ; preds = %20
  %25 = icmp sgt i32 %1, 30
  br i1 %25, label %26, label %28

26:                                               ; preds = %24
  %27 = call i32 (ptr, i64, ptr, ...) @BIO_snprintf(ptr noundef nonnull %6, i64 noundef 128, ptr noundef nonnull @.str.54, i32 noundef %1) #5
  br label %ASN1_tag2str.exit

28:                                               ; preds = %24
  %29 = and i32 %1, -9
  %or.cond.i = icmp eq i32 %29, 258
  %30 = and i32 %1, 10
  %spec.select.i = select i1 %or.cond.i, i32 %30, i32 %1
  %or.cond3.i = icmp ugt i32 %spec.select.i, 30
  br i1 %or.cond3.i, label %ASN1_tag2str.exit, label %31

31:                                               ; preds = %28
  %32 = zext nneg i32 %spec.select.i to i64
  %33 = getelementptr inbounds nuw [31 x ptr], ptr @ASN1_tag2str.tag2str, i64 0, i64 %32
  %34 = load ptr, ptr %33, align 8, !tbaa !6
  br label %ASN1_tag2str.exit

ASN1_tag2str.exit:                                ; preds = %31, %28, %18, %26, %22, %14
  %.1 = phi ptr [ %6, %14 ], [ %6, %18 ], [ %6, %22 ], [ %6, %26 ], [ %34, %31 ], [ @.str.31, %28 ]
  %35 = call i32 (ptr, ptr, ...) @BIO_printf(ptr noundef %0, ptr noundef nonnull @asn1_print_info.fmt, ptr noundef %.1) #5
  %36 = icmp slt i32 %35, 1
  br i1 %36, label %37, label %38

37:                                               ; preds = %ASN1_tag2str.exit, %5
  br label %38

38:                                               ; preds = %ASN1_tag2str.exit, %37
  %.016 = phi i32 [ 0, %37 ], [ 1, %ASN1_tag2str.exit ]
  call void @llvm.lifetime.end.p0(i64 128, ptr nonnull %6) #5
  ret i32 %.016
}